target datalayout = "e-m:e-p270:32:32-p271:32:32-p272:64:64-i64:64-i128:128-f80:128-n8:16:32:64-S128"
target triple = "x86_64-unknown-linux-gnu"

; Function Attrs: mustprogress nounwind uwtable
define linkonce_odr noundef i32 @_ZNSt14numeric_limitsIjE3maxEv() #4 comdat align 2 {
entry:
  ret i32 -1
}

; Function Attrs: mustprogress uwtable
define linkonce_odr noundef i32 @_ZN7httplib6detail12str2tag_coreEPKcmj(ptr noundef %s, i64 noundef %l, i32 noundef %h) #6 comdat {
entry:
  %s.addr = alloca ptr, align 8
  %l.addr = alloca i64, align 8
  %h.addr = alloca i32, align 4
  store ptr %s, ptr %s.addr, align 8
  store i64 %l, ptr %l.addr, align 8
  store i32 %h, ptr %h.addr, align 4
  %0 = load i64, ptr %l.addr, align 8
  %cmp = icmp eq i64 %0, 0
  br i1 %cmp, label %cond.true, label %cond.false

cond.true:                                        ; preds = %entry
  %1 = load i32, ptr %h.addr, align 4
  br label %cond.end

cond.false:                                       ; preds = %entry
  %2 = load ptr, ptr %s.addr, align 8
  %add.ptr = getelementptr inbounds i8, ptr %2, i64 1
  %3 = load i64, ptr %l.addr, align 8
  %sub = sub i64 %3, 1
  %call = call noundef i32 @_ZNSt14numeric_limitsIjE3maxEv() #3
  %shr = lshr i32 %call, 6
  %4 = load i32, ptr %h.addr, align 4
  %mul = mul i32 %4, 33
  %and = and i32 %shr, %mul
  %5 = load ptr, ptr %s.addr, align 8
  %6 = load i8, ptr %5, align 1
  %conv = zext i8 %6 to i32
  %xor = xor i32 %and, %conv
  %call1 = call noundef i32 @_ZN7httplib6detail12str2tag_coreEPKcmj(ptr noundef %add.ptr, i64 noundef %sub, i32 noundef %xor)
  br label %cond.end

cond.end:                                         ; preds = %cond.false, %cond.true
  %cond = phi i32 [ %1, %cond.true ], [ %call1, %cond.false ]
  ret i32 %cond
}

; Function Attrs: mustprogress uwtable
define noundef i32 @_ZN7httplib6detail7str2tagERKNSt7__cxx1112basic_stringIcSt11char_traitsIcESaIcEEE(ptr noundef nonnull align 8 dereferenceable(32) %s) #6 {
entry:
  %s.addr = alloca ptr, align 8
  store ptr %s, ptr %s.addr, align 8
  %0 = load ptr, ptr %s.addr, align 8
  %call = call noundef ptr @_ZNKSt7__cxx1112basic_stringIcSt11char_traitsIcESaIcEE4dataEv(ptr noundef nonnull align 8 dereferenceable(32) %0) #3
  %1 = load ptr, ptr %s.addr, align 8
  %call1 = call noundef i64 @_ZNKSt7__cxx1112basic_stringIcSt11char_traitsIcESaIcEE4sizeEv(ptr noundef nonnull align 8 dereferenceable(32) %1) #3
  %call2 = call noundef i32 @_ZN7httplib6detail12str2tag_coreEPKcmj(ptr noundef %call, i64 noundef %call1, i32 noundef 0)
  ret i32 %call2
}