; Function Attrs: mustprogress nounwind uwtable
define noundef i32 @_ZN7httplib6detail7str2tagERKNSt7__cxx1112basic_stringIcSt11char_traitsIcESaIcEEE(ptr noundef nonnull align 8 dereferenceable(32) %s) local_unnamed_addr #4 {
entry:
  %call = tail call noundef ptr @_ZNKSt7__cxx1112basic_stringIcSt11char_traitsIcESaIcEE4dataEv(ptr noundef nonnull align 8 dereferenceable(32) %s) #37
  %call1 = tail call noundef i64 @_ZNKSt7__cxx1112basic_stringIcSt11char_traitsIcESaIcEE4sizeEv(ptr noundef nonnull align 8 dereferenceable(32) %s) #37
  %cmp4.i = icmp eq i64 %call1, 0
  br i1 %cmp4.i, label %_ZN7httplib6detail12str2tag_coreEPKcmj.exit, label %cond.false.i

cond.false.i:                                     ; preds = %entry, %cond.false.i
  %h.tr7.i = phi i32 [ %xor.i, %cond.false.i ], [ 0, %entry ]
  %l.tr6.i = phi i64 [ %sub.i, %cond.false.i ], [ %call1, %entry ]
  %s.tr5.i = phi ptr [ %add.ptr.i, %cond.false.i ], [ %call, %entry ]
  %add.ptr.i = getelementptr inbounds i8, ptr %s.tr5.i, i64 1
  %sub.i = add i64 %l.tr6.i, -1
  %mul.i = mul nuw i32 %h.tr7.i, 33
  %and.i = and i32 %mul.i, 67108863
  %0 = load i8, ptr %s.tr5.i, align 1
  %conv.i = zext i8 %0 to i32
  %xor.i = xor i32 %and.i, %conv.i
  %cmp.i = icmp eq i64 %sub.i, 0
  br i1 %cmp.i, label %_ZN7httplib6detail12str2tag_coreEPKcmj.exit, label %cond.false.i

_ZN7httplib6detail12str2tag_coreEPKcmj.exit:      ; preds = %cond.false.i, %entry
  %h.tr.lcssa.i = phi i32 [ 0, %entry ], [ %xor.i, %cond.false.i ]
  ret i32 %h.tr.lcssa.i
}